; ModuleID = '20/717.c'
source_filename = "20/717.c"
target datalayout = "e-m:e-p270:32:32-p271:32:32-p272:64:64-i64:64-f80:128-n8:16:32:64-S128"
target triple = "x86_64-pc-linux-gnu"

@.str = private unnamed_addr constant [6 x i8] c"%s %s\00", align 1
@.str.1 = private unnamed_addr constant [4 x i8] c"%s\0A\00", align 1

; Function Attrs: noinline nounwind uwtable
define dso_local void @main() #0 {
  %1 = alloca [14 x i8], align 1
  %2 = alloca [4 x i8], align 1
  %3 = alloca i8, align 1
  %4 = alloca i32, align 4
  %5 = alloca i32, align 4
  %6 = alloca i32, align 4
  br label %7

7:                                                ; preds = %77, %0
  %8 = getelementptr inbounds [14 x i8], [14 x i8]* %1, i64 0, i64 0
  %9 = getelementptr inbounds [4 x i8], [4 x i8]* %2, i64 0, i64 0
  %10 = call i32 (i8*, ...) @__isoc99_scanf(i8* getelementptr inbounds ([6 x i8], [6 x i8]* @.str, i64 0, i64 0), i8* %8, i8* %9)
  %11 = icmp ne i32 %10, -1
  br i1 %11, label %12, label %84

12:                                               ; preds = %7
  %13 = getelementptr inbounds [14 x i8], [14 x i8]* %1, i64 0, i64 0
  %14 = call i64 @strlen(i8* %13) #3
  %15 = trunc i64 %14 to i32
  store i32 %15, i32* %6, align 4
  store i8 0, i8* %3, align 1
  store i32 0, i32* %5, align 4
  br label %16

16:                                               ; preds = %37, %12
  %17 = load i32, i32* %5, align 4
  %18 = load i32, i32* %6, align 4
  %19 = icmp slt i32 %17, %18
  br i1 %19, label %20, label %40

20:                                               ; preds = %16
  %21 = load i32, i32* %5, align 4
  %22 = sext i32 %21 to i64
  %23 = getelementptr inbounds [14 x i8], [14 x i8]* %1, i64 0, i64 %22
  %24 = load i8, i8* %23, align 1
  %25 = sext i8 %24 to i32
  %26 = load i8, i8* %3, align 1
  %27 = sext i8 %26 to i32
  %28 = sub nsw i32 %25, %27
  %29 = icmp sgt i32 %28, 0
  br i1 %29, label %30, label %36

30:                                               ; preds = %20
  %31 = load i32, i32* %5, align 4
  store i32 %31, i32* %4, align 4
  %32 = load i32, i32* %5, align 4
  %33 = sext i32 %32 to i64
  %34 = getelementptr inbounds [14 x i8], [14 x i8]* %1, i64 0, i64 %33
  %35 = load i8, i8* %34, align 1
  store i8 %35, i8* %3, align 1
  br label %36

36:                                               ; preds = %30, %20
  br label %37

37:                                               ; preds = %36
  %38 = load i32, i32* %5, align 4
  %39 = add nsw i32 %38, 1
  store i32 %39, i32* %5, align 4
  br label %16

40:                                               ; preds = %16
  %41 = load i32, i32* %6, align 4
  %42 = sub nsw i32 %41, 1
  store i32 %42, i32* %5, align 4
  br label %43

43:                                               ; preds = %56, %40
  %44 = load i32, i32* %5, align 4
  %45 = load i32, i32* %4, align 4
  %46 = icmp sgt i32 %44, %45
  br i1 %46, label %47, label %59

47:                                               ; preds = %43
  %48 = load i32, i32* %5, align 4
  %49 = sext i32 %48 to i64
  %50 = getelementptr inbounds [14 x i8], [14 x i8]* %1, i64 0, i64 %49
  %51 = load i8, i8* %50, align 1
  %52 = load i32, i32* %5, align 4
  %53 = add nsw i32 %52, 3
  %54 = sext i32 %53 to i64
  %55 = getelementptr inbounds [14 x i8], [14 x i8]* %1, i64 0, i64 %54
  store i8 %51, i8* %55, align 1
  br label %56

56:                                               ; preds = %47
  %57 = load i32, i32* %5, align 4
  %58 = add nsw i32 %57, -1
  store i32 %58, i32* %5, align 4
  br label %43

59:                                               ; preds = %43
  store i32 0, i32* %5, align 4
  br label %60

60:                                               ; preds = %74, %59
  %61 = load i32, i32* %5, align 4
  %62 = icmp slt i32 %61, 3
  br i1 %62, label %63, label %77

63:                                               ; preds = %60
  %64 = load i32, i32* %5, align 4
  %65 = sext i32 %64 to i64
  %66 = getelementptr inbounds [4 x i8], [4 x i8]* %2, i64 0, i64 %65
  %67 = load i8, i8* %66, align 1
  %68 = load i32, i32* %5, align 4
  %69 = load i32, i32* %4, align 4
  %70 = add nsw i32 %68, %69
  %71 = add nsw i32 %70, 1
  %72 = sext i32 %71 to i64
  %73 = getelementptr inbounds [14 x i8], [14 x i8]* %1, i64 0, i64 %72
  store i8 %67, i8* %73, align 1
  br label %74

74:                                               ; preds = %63
  %75 = load i32, i32* %5, align 4
  %76 = add nsw i32 %75, 1
  store i32 %76, i32* %5, align 4
  br label %60

77:                                               ; preds = %60
  %78 = load i32, i32* %6, align 4
  %79 = add nsw i32 %78, 3
  %80 = sext i32 %79 to i64
  %81 = getelementptr inbounds [14 x i8], [14 x i8]* %1, i64 0, i64 %80
  store i8 0, i8* %81, align 1
  %82 = getelementptr inbounds [14 x i8], [14 x i8]* %1, i64 0, i64 0
  %83 = call i32 (i8*, ...) @printf(i8* getelementptr inbounds ([4 x i8], [4 x i8]* @.str.1, i64 0, i64 0), i8* %82)
  br label %7

84:                                               ; preds = %7
  ret void
}

declare dso_local i32 @__isoc99_scanf(i8*, ...) #1

; Function Attrs: nounwind readonly
declare dso_local i64 @strlen(i8*) #2

declare dso_local i32 @printf(i8*, ...) #1


!llvm.module.flags = !{!0}
!llvm.ident = !{!1}

!0 = !{i32 1, !"wchar_size", i32 4}
!1 = !{!"clang version 10.0.0-4ubuntu1 "}
